target datalayout = "e-m:e-p270:32:32-p271:32:32-p272:64:64-i64:64-i128:128-f80:128-n8:16:32:64-S128"
target triple = "x86_64-pc-linux-gnu"

%struct.bufferevent_ssl = type { %struct.bufferevent_private, ptr, ptr, ptr, ptr, %struct.bio_data_counts, i64, [3 x i32], i8, i64 }
%struct.bufferevent_private = type { %struct.bufferevent, ptr, i8, i16, i16, i16, i32, i32, %struct.event_callback, i32, i32, ptr, i64, i64, ptr, %union.anon.7, ptr }
%struct.bufferevent = type { ptr, ptr, %struct.event, %struct.event, ptr, ptr, %struct.event_watermark, %struct.event_watermark, ptr, ptr, ptr, ptr, %struct.timeval, %struct.timeval, i16 }
%struct.event = type { %struct.event_callback, %union.anon.0, i32, i16, i16, ptr, %union.anon.2, %struct.timeval }
%union.anon.0 = type { %struct.anon.1 }
%struct.anon.1 = type { ptr, ptr }
%union.anon.2 = type { %struct.anon.3 }
%struct.anon.3 = type { %struct.anon.4, %struct.timeval }
%struct.anon.4 = type { ptr, ptr }
%struct.event_watermark = type { i64, i64 }
%struct.timeval = type { i64, i64 }
%struct.event_callback = type { %struct.anon, i16, i8, i8, %union.anon, ptr }
%struct.anon = type { ptr, ptr }
%union.anon = type { ptr }
%union.anon.7 = type { %struct.sockaddr_in6 }
%struct.sockaddr_in6 = type { i16, i16, i32, %struct.in6_addr, i32 }
%struct.in6_addr = type { %union.anon.8 }
%union.anon.8 = type { [4 x i32] }
%struct.bio_data_counts = type { i64, i64 }
%struct.mbedtls_context = type { ptr, %struct.mbedtls_net_context }
%struct.mbedtls_net_context = type { i32 }

; Function Attrs: nounwind uwtable
define dso_local void @bufferevent_mbedtls_dyncontext_free(ptr noundef %0) #0 {
  %2 = alloca ptr, align 8
  store ptr %0, ptr %2, align 8
  %3 = load ptr, ptr %2, align 8
  call void @mbedtls_ssl_free(ptr noundef %3)
  %4 = load ptr, ptr %2, align 8
  call void @event_mm_free_(ptr noundef %4)
  ret void
}

; Function Attrs: nounwind uwtable
define internal i32 @be_mbedtls_bio_set_fd(ptr noundef %0, i32 noundef %1) #0 {
  %3 = alloca ptr, align 8
  %4 = alloca i32, align 4
  %5 = alloca ptr, align 8
  store ptr %0, ptr %3, align 8
  store i32 %1, ptr %4, align 4
  call void @llvm.lifetime.start.p0(i64 8, ptr %5) #3
  %6 = load ptr, ptr %3, align 8
  %7 = getelementptr inbounds nuw %struct.bufferevent_ssl, ptr %6, i32 0, i32 2
  %8 = load ptr, ptr %7, align 8
  store ptr %8, ptr %5, align 8
  %9 = load ptr, ptr %3, align 8
  %10 = getelementptr inbounds nuw %struct.bufferevent_ssl, ptr %9, i32 0, i32 1
  %11 = load ptr, ptr %10, align 8
  %12 = icmp ne ptr %11, null
  br i1 %12, label %23, label %13

13:                                               ; preds = %2
  %14 = load i32, ptr %4, align 4
  %15 = load ptr, ptr %5, align 8
  %16 = getelementptr inbounds nuw %struct.mbedtls_context, ptr %15, i32 0, i32 1
  %17 = getelementptr inbounds nuw %struct.mbedtls_net_context, ptr %16, i32 0, i32 0
  store i32 %14, ptr %17, align 8
  %18 = load ptr, ptr %5, align 8
  %19 = getelementptr inbounds nuw %struct.mbedtls_context, ptr %18, i32 0, i32 0
  %20 = load ptr, ptr %19, align 8
  %21 = load ptr, ptr %5, align 8
  %22 = getelementptr inbounds nuw %struct.mbedtls_context, ptr %21, i32 0, i32 1
  call void @mbedtls_ssl_set_bio(ptr noundef %20, ptr noundef %22, ptr noundef @mbedtls_net_send, ptr noundef @mbedtls_net_recv, ptr noundef null)
  br label %30

23:                                               ; preds = %2
  %24 = load ptr, ptr %5, align 8
  %25 = getelementptr inbounds nuw %struct.mbedtls_context, ptr %24, i32 0, i32 0
  %26 = load ptr, ptr %25, align 8
  %27 = load ptr, ptr %3, align 8
  %28 = getelementptr inbounds nuw %struct.bufferevent_ssl, ptr %27, i32 0, i32 1
  %29 = load ptr, ptr %28, align 8
  call void @mbedtls_ssl_set_bio(ptr noundef %26, ptr noundef %29, ptr noundef @bio_bufferevent_write, ptr noundef @bio_bufferevent_read, ptr noundef null)
  br label %30

30:                                               ; preds = %23, %13
  call void @llvm.lifetime.end.p0(i64 8, ptr %5) #3
  ret i32 0
}

; Function Attrs: nounwind uwtable
define dso_local ptr @bufferevent_mbedtls_filter_new(ptr noundef %0, ptr noundef %1, ptr noundef %2, i32 noundef %3, i32 noundef %4) #0 {
  %6 = alloca ptr, align 8
  %7 = alloca ptr, align 8
  %8 = alloca ptr, align 8
  %9 = alloca ptr, align 8
  %10 = alloca i32, align 4
  %11 = alloca i32, align 4
  %12 = alloca ptr, align 8
  %13 = alloca i32, align 4
  store ptr %0, ptr %7, align 8
  store ptr %1, ptr %8, align 8
  store ptr %2, ptr %9, align 8
  store i32 %3, ptr %10, align 4
  store i32 %4, ptr %11, align 4
  call void @llvm.lifetime.start.p0(i64 8, ptr %12) #3
  %14 = load ptr, ptr %8, align 8
  %15 = icmp ne ptr %14, null
  br i1 %15, label %17, label %16

16:                                               ; preds = %5
  br label %32

17:                                               ; preds = %5
  %18 = load ptr, ptr %7, align 8
  %19 = load ptr, ptr %8, align 8
  %20 = load ptr, ptr %9, align 8
  %21 = load i32, ptr %10, align 4
  %22 = load i32, ptr %11, align 4
  %23 = call ptr @bufferevent_ssl_new_impl(ptr noundef %18, ptr noundef %19, i32 noundef -1, ptr noundef %20, i32 noundef %21, i32 noundef %22, ptr noundef @le_mbedtls_ops)
  store ptr %23, ptr %12, align 8
  %24 = load ptr, ptr %12, align 8
  %25 = icmp ne ptr %24, null
  br i1 %25, label %26, label %30

26:                                               ; preds = %17
  %27 = load ptr, ptr %12, align 8
  %28 = call ptr @bufferevent_ssl_upcast(ptr noundef %27)
  %29 = call i32 @be_mbedtls_bio_set_fd(ptr noundef %28, i32 noundef -1)
  br label %30

30:                                               ; preds = %26, %17
  %31 = load ptr, ptr %12, align 8
  store ptr %31, ptr %6, align 8
  store i32 1, ptr %13, align 4
  br label %39

32:                                               ; preds = %16
  %33 = load i32, ptr %11, align 4
  %34 = and i32 %33, 1
  %35 = icmp ne i32 %34, 0
  br i1 %35, label %36, label %38

36:                                               ; preds = %32
  %37 = load ptr, ptr %9, align 8
  call void @bufferevent_mbedtls_dyncontext_free(ptr noundef %37)
  br label %38

38:                                               ; preds = %36, %32
  store ptr null, ptr %6, align 8
  store i32 1, ptr %13, align 4
  br label %39

39:                                               ; preds = %38, %30
  call void @llvm.lifetime.end.p0(i64 8, ptr %12) #3
  %40 = load ptr, ptr %6, align 8
  ret ptr %40
}