; Function Attrs: nounwind uwtable
define dso_local ptr @bufferevent_mbedtls_filter_new(ptr noundef %0, ptr noundef %1, ptr noundef %2, i32 noundef %3, i32 noundef %4) local_unnamed_addr #0 {
  %.not = icmp eq ptr %1, null
  br i1 %.not, label %19, label %6

6:                                                ; preds = %5
  %7 = tail call ptr @bufferevent_ssl_new_impl(ptr noundef %0, ptr noundef nonnull %1, i32 noundef -1, ptr noundef %2, i32 noundef %3, i32 noundef %4, ptr noundef nonnull @le_mbedtls_ops) #5
  %.not14 = icmp eq ptr %7, null
  br i1 %.not14, label %be_mbedtls_bio_set_fd.exit, label %8

8:                                                ; preds = %6
  %9 = tail call ptr @bufferevent_ssl_upcast(ptr noundef nonnull %7) #5
  %10 = getelementptr inbounds nuw i8, ptr %9, i64 528
  %11 = load ptr, ptr %10, align 8
  %12 = getelementptr inbounds nuw i8, ptr %9, i64 520
  %13 = load ptr, ptr %12, align 8
  %.not.i = icmp eq ptr %13, null
  br i1 %.not.i, label %14, label %17

14:                                               ; preds = %8
  %15 = getelementptr inbounds nuw i8, ptr %11, i64 8
  store i32 -1, ptr %15, align 8
  %16 = load ptr, ptr %11, align 8
  tail call void @mbedtls_ssl_set_bio(ptr noundef %16, ptr noundef nonnull %15, ptr noundef nonnull @mbedtls_net_send, ptr noundef nonnull @mbedtls_net_recv, ptr noundef null) #5
  br label %be_mbedtls_bio_set_fd.exit

17:                                               ; preds = %8
  %18 = load ptr, ptr %11, align 8
  tail call void @mbedtls_ssl_set_bio(ptr noundef %18, ptr noundef nonnull %13, ptr noundef nonnull @bio_bufferevent_write, ptr noundef nonnull @bio_bufferevent_read, ptr noundef null) #5
  br label %be_mbedtls_bio_set_fd.exit

19:                                               ; preds = %5
  %20 = and i32 %4, 1
  %.not13 = icmp eq i32 %20, 0
  br i1 %.not13, label %be_mbedtls_bio_set_fd.exit, label %21

21:                                               ; preds = %19
  tail call void @mbedtls_ssl_free(ptr noundef %2) #5
  tail call void @event_mm_free_(ptr noundef %2) #5
  br label %be_mbedtls_bio_set_fd.exit

be_mbedtls_bio_set_fd.exit:                       ; preds = %17, %14, %19, %21, %6
  %.0 = phi ptr [ null, %6 ], [ null, %21 ], [ null, %19 ], [ %7, %14 ], [ %7, %17 ]
  ret ptr %.0
}